target datalayout = "e-m:e-p270:32:32-p271:32:32-p272:64:64-i64:64-i128:128-f80:128-n8:16:32:64-S128"
target triple = "x86_64-pc-linux-gnu"

%"class.std::__1::__fs::filesystem::path" = type { %"class.std::__1::basic_string" }
%"class.std::__1::basic_string" = type { %"union.std::__1::basic_string<char>::__rep" }
%"union.std::__1::basic_string<char>::__rep" = type { %"struct.std::__1::basic_string<char>::__long" }
%"struct.std::__1::basic_string<char>::__long" = type { %struct.anon.0, i64, ptr }
%struct.anon.0 = type { i64 }
%"class.std::__1::error_code" = type { i32, ptr }
%"struct.std::__1::__fs::filesystem::detail::ErrorHandler.1" = type { ptr, ptr, ptr, ptr }
%"struct.std::__1::basic_string<char>::__short" = type { %struct.anon, [23 x i8] }
%struct.anon = type { i8 }

@.str.7 = private unnamed_addr constant [17 x i8] c"create_hard_link\00", align 1

; Function Attrs: mustprogress nounwind uwtable
define linkonce_odr hidden noundef ptr @_ZNSt3__114pointer_traitsIPKcE10pointer_toB8ne210000ERS1_(ptr noundef nonnull align 1 dereferenceable(1) %0) #2 comdat align 2 {
  %2 = alloca ptr, align 8
  store ptr %0, ptr %2, align 8, !tbaa !13
  %3 = load ptr, ptr %2, align 8, !tbaa !13
  ret ptr %3
}

; Function Attrs: mustprogress nounwind uwtable
define linkonce_odr hidden noundef ptr @_ZNKSt3__112basic_stringIcNS_11char_traitsIcEENS_9allocatorIcEEE19__get_short_pointerB8ne210000Ev(ptr noundef nonnull align 8 dereferenceable(24) %0) #2 comdat align 2 {
  %2 = alloca ptr, align 8
  store ptr %0, ptr %2, align 8, !tbaa !106
  %3 = load ptr, ptr %2, align 8
  %4 = getelementptr inbounds nuw %"class.std::__1::basic_string", ptr %3, i32 0, i32 0
  %5 = getelementptr inbounds nuw %"struct.std::__1::basic_string<char>::__short", ptr %4, i32 0, i32 1
  %6 = getelementptr inbounds [23 x i8], ptr %5, i64 0, i64 0
  %7 = call noundef ptr @_ZNSt3__114pointer_traitsIPKcE10pointer_toB8ne210000ERS1_(ptr noundef nonnull align 1 dereferenceable(1) %6) #20
  ret ptr %7
}

; Function Attrs: mustprogress nounwind uwtable
define linkonce_odr hidden noundef ptr @_ZNKSt3__112basic_stringIcNS_11char_traitsIcEENS_9allocatorIcEEE18__get_long_pointerB8ne210000Ev(ptr noundef nonnull align 8 dereferenceable(24) %0) #2 comdat align 2 {
  %2 = alloca ptr, align 8
  store ptr %0, ptr %2, align 8, !tbaa !106
  %3 = load ptr, ptr %2, align 8
  %4 = getelementptr inbounds nuw %"class.std::__1::basic_string", ptr %3, i32 0, i32 0
  %5 = getelementptr inbounds nuw %"struct.std::__1::basic_string<char>::__long", ptr %4, i32 0, i32 2
  %6 = load ptr, ptr %5, align 8, !tbaa !101
  ret ptr %6
}

; Function Attrs: mustprogress nounwind uwtable
define linkonce_odr hidden noundef zeroext i1 @_ZNKSt3__112basic_stringIcNS_11char_traitsIcEENS_9allocatorIcEEE9__is_longB8ne210000Ev(ptr noundef nonnull align 8 dereferenceable(24) %0) #2 comdat align 2 {
  %2 = alloca ptr, align 8
  store ptr %0, ptr %2, align 8, !tbaa !106
  %3 = load ptr, ptr %2, align 8
  %4 = getelementptr inbounds nuw %"class.std::__1::basic_string", ptr %3, i32 0, i32 0
  %5 = getelementptr inbounds nuw %"struct.std::__1::basic_string<char>::__short", ptr %4, i32 0, i32 0
  %6 = load i8, ptr %5, align 8
  %7 = and i8 %6, 1
  %8 = icmp ne i8 %7, 0
  ret i1 %8
}

; Function Attrs: mustprogress nounwind uwtable
define linkonce_odr hidden noundef ptr @_ZNSt3__112__to_addressB8ne210000IKcEEPT_S3_(ptr noundef %0) #2 comdat {
  %2 = alloca ptr, align 8
  store ptr %0, ptr %2, align 8, !tbaa !13
  %3 = load ptr, ptr %2, align 8, !tbaa !13
  ret ptr %3
}

; Function Attrs: mustprogress nounwind uwtable
define linkonce_odr hidden noundef ptr @_ZNKSt3__112basic_stringIcNS_11char_traitsIcEENS_9allocatorIcEEE13__get_pointerB8ne210000Ev(ptr noundef nonnull align 8 dereferenceable(24) %0) #2 comdat align 2 {
  %2 = alloca ptr, align 8
  store ptr %0, ptr %2, align 8, !tbaa !106
  %3 = load ptr, ptr %2, align 8
  %4 = call noundef zeroext i1 @_ZNKSt3__112basic_stringIcNS_11char_traitsIcEENS_9allocatorIcEEE9__is_longB8ne210000Ev(ptr noundef nonnull align 8 dereferenceable(24) %3) #20
  br i1 %4, label %5, label %7

5:                                                ; preds = %1
  %6 = call noundef ptr @_ZNKSt3__112basic_stringIcNS_11char_traitsIcEENS_9allocatorIcEEE18__get_long_pointerB8ne210000Ev(ptr noundef nonnull align 8 dereferenceable(24) %3) #20
  br label %9

7:                                                ; preds = %1
  %8 = call noundef ptr @_ZNKSt3__112basic_stringIcNS_11char_traitsIcEENS_9allocatorIcEEE19__get_short_pointerB8ne210000Ev(ptr noundef nonnull align 8 dereferenceable(24) %3) #20
  br label %9

9:                                                ; preds = %7, %5
  %10 = phi ptr [ %6, %5 ], [ %8, %7 ]
  ret ptr %10
}

; Function Attrs: mustprogress nounwind uwtable
define linkonce_odr hidden void @_ZNSt3__110error_codeC2B8ne210000EiRKNS_14error_categoryE(ptr noundef nonnull align 8 dereferenceable(16) %0, i32 noundef %1, ptr noundef nonnull align 8 dereferenceable(8) %2) unnamed_addr #2 comdat align 2 {
  %4 = alloca ptr, align 8
  %5 = alloca i32, align 4
  %6 = alloca ptr, align 8
  store ptr %0, ptr %4, align 8, !tbaa !10
  store i32 %1, ptr %5, align 4, !tbaa !30
  store ptr %2, ptr %6, align 8, !tbaa !32
  %7 = load ptr, ptr %4, align 8
  %8 = getelementptr inbounds nuw %"class.std::__1::error_code", ptr %7, i32 0, i32 0
  %9 = load i32, ptr %5, align 4, !tbaa !30
  store i32 %9, ptr %8, align 8, !tbaa !60
  %10 = getelementptr inbounds nuw %"class.std::__1::error_code", ptr %7, i32 0, i32 1
  %11 = load ptr, ptr %6, align 8, !tbaa !32
  store ptr %11, ptr %10, align 8, !tbaa !62
  ret void
}

; Function Attrs: mustprogress nounwind uwtable
define linkonce_odr hidden noundef ptr @_ZNKSt3__112basic_stringIcNS_11char_traitsIcEENS_9allocatorIcEEE4dataB8ne210000Ev(ptr noundef nonnull align 8 dereferenceable(24) %0) #2 comdat align 2 {
  %2 = alloca ptr, align 8
  store ptr %0, ptr %2, align 8, !tbaa !106
  %3 = load ptr, ptr %2, align 8
  %4 = call noundef ptr @_ZNKSt3__112basic_stringIcNS_11char_traitsIcEENS_9allocatorIcEEE13__get_pointerB8ne210000Ev(ptr noundef nonnull align 8 dereferenceable(24) %3) #20
  %5 = call noundef ptr @_ZNSt3__112__to_addressB8ne210000IKcEEPT_S3_(ptr noundef %4) #20
  ret ptr %5
}

; Function Attrs: inlinehint mustprogress nounwind uwtable
define linkonce_odr hidden { i32, ptr } @_ZNSt3__14__fs10filesystem6detail13capture_errnoB8ne210000Ev() #5 comdat {
  %1 = alloca %"class.std::__1::error_code", align 8
  %2 = call ptr @__errno_location() #22
  %3 = load i32, ptr %2, align 4, !tbaa !30
  %4 = call noundef nonnull align 8 dereferenceable(8) ptr @_ZNSt3__116generic_categoryEv() #22
  call void @_ZNSt3__110error_codeC2B8ne210000EiRKNS_14error_categoryE(ptr noundef nonnull align 8 dereferenceable(16) %1, i32 noundef %3, ptr noundef nonnull align 8 dereferenceable(8) %4) #20
  %5 = load { i32, ptr }, ptr %1, align 8
  ret { i32, ptr } %5
}

; Function Attrs: mustprogress nounwind uwtable
define linkonce_odr hidden noundef ptr @_ZNKSt3__112basic_stringIcNS_11char_traitsIcEENS_9allocatorIcEEE5c_strB8ne210000Ev(ptr noundef nonnull align 8 dereferenceable(24) %0) #2 comdat align 2 {
  %2 = alloca ptr, align 8
  store ptr %0, ptr %2, align 8, !tbaa !106
  %3 = load ptr, ptr %2, align 8
  %4 = call noundef ptr @_ZNKSt3__112basic_stringIcNS_11char_traitsIcEENS_9allocatorIcEEE4dataB8ne210000Ev(ptr noundef nonnull align 8 dereferenceable(24) %3) #20
  ret ptr %4
}

; Function Attrs: mustprogress nounwind uwtable
define linkonce_odr hidden void @_ZNSt3__110error_code5clearB8ne210000Ev(ptr noundef nonnull align 8 dereferenceable(16) %0) #2 comdat align 2 {
  %2 = alloca ptr, align 8
  store ptr %0, ptr %2, align 8, !tbaa !10
  %3 = load ptr, ptr %2, align 8
  %4 = getelementptr inbounds nuw %"class.std::__1::error_code", ptr %3, i32 0, i32 0
  store i32 0, ptr %4, align 8, !tbaa !60
  %5 = call noundef nonnull align 8 dereferenceable(8) ptr @_ZNSt3__115system_categoryEv() #22
  %6 = getelementptr inbounds nuw %"class.std::__1::error_code", ptr %3, i32 0, i32 1
  store ptr %5, ptr %6, align 8, !tbaa !62
  ret void
}

; Function Attrs: inlinehint mustprogress uwtable
define linkonce_odr hidden { i32, ptr } @_ZNSt3__14__fs10filesystem6detail14get_last_errorB8ne210000Ev() #4 comdat {
  %1 = alloca %"class.std::__1::error_code", align 8
  %2 = call { i32, ptr } @_ZNSt3__14__fs10filesystem6detail13capture_errnoB8ne210000Ev()
  %3 = getelementptr inbounds nuw { i32, ptr }, ptr %1, i32 0, i32 0
  %4 = extractvalue { i32, ptr } %2, 0
  store i32 %4, ptr %3, align 8
  %5 = getelementptr inbounds nuw { i32, ptr }, ptr %1, i32 0, i32 1
  %6 = extractvalue { i32, ptr } %2, 1
  store ptr %6, ptr %5, align 8
  %7 = load { i32, ptr }, ptr %1, align 8
  ret { i32, ptr } %7
}

; Function Attrs: mustprogress nounwind uwtable
define linkonce_odr hidden noundef ptr @_ZNKSt3__14__fs10filesystem4path5c_strB8ne210000Ev(ptr noundef nonnull align 8 dereferenceable(24) %0) #2 comdat align 2 {
  %2 = alloca ptr, align 8
  store ptr %0, ptr %2, align 8, !tbaa !5
  %3 = load ptr, ptr %2, align 8
  %4 = getelementptr inbounds nuw %"class.std::__1::__fs::filesystem::path", ptr %3, i32 0, i32 0
  %5 = call noundef ptr @_ZNKSt3__112basic_stringIcNS_11char_traitsIcEENS_9allocatorIcEEE5c_strB8ne210000Ev(ptr noundef nonnull align 8 dereferenceable(24) %4) #20
  ret ptr %5
}

; Function Attrs: mustprogress nounwind uwtable
define linkonce_odr hidden void @_ZNSt3__14__fs10filesystem6detail12ErrorHandlerIvEC2B8ne210000EPKcPNS_10error_codeEPKNS1_4pathESB_(ptr noundef nonnull align 8 dereferenceable(32) %0, ptr noundef %1, ptr noundef %2, ptr noundef %3, ptr noundef %4) unnamed_addr #2 comdat align 2 {
  %6 = alloca ptr, align 8
  %7 = alloca ptr, align 8
  %8 = alloca ptr, align 8
  %9 = alloca ptr, align 8
  %10 = alloca ptr, align 8
  store ptr %0, ptr %6, align 8, !tbaa !53
  store ptr %1, ptr %7, align 8, !tbaa !13
  store ptr %2, ptr %8, align 8, !tbaa !10
  store ptr %3, ptr %9, align 8, !tbaa !5
  store ptr %4, ptr %10, align 8, !tbaa !5
  %11 = load ptr, ptr %6, align 8
  %12 = getelementptr inbounds nuw %"struct.std::__1::__fs::filesystem::detail::ErrorHandler.1", ptr %11, i32 0, i32 0
  %13 = load ptr, ptr %7, align 8, !tbaa !13
  store ptr %13, ptr %12, align 8, !tbaa !55
  %14 = getelementptr inbounds nuw %"struct.std::__1::__fs::filesystem::detail::ErrorHandler.1", ptr %11, i32 0, i32 1
  %15 = load ptr, ptr %8, align 8, !tbaa !10
  store ptr %15, ptr %14, align 8, !tbaa !57
  %16 = getelementptr inbounds nuw %"struct.std::__1::__fs::filesystem::detail::ErrorHandler.1", ptr %11, i32 0, i32 2
  %17 = load ptr, ptr %9, align 8, !tbaa !5
  store ptr %17, ptr %16, align 8, !tbaa !58
  %18 = getelementptr inbounds nuw %"struct.std::__1::__fs::filesystem::detail::ErrorHandler.1", ptr %11, i32 0, i32 3
  %19 = load ptr, ptr %10, align 8, !tbaa !5
  store ptr %19, ptr %18, align 8, !tbaa !59
  %20 = getelementptr inbounds nuw %"struct.std::__1::__fs::filesystem::detail::ErrorHandler.1", ptr %11, i32 0, i32 1
  %21 = load ptr, ptr %20, align 8, !tbaa !57
  %22 = icmp ne ptr %21, null
  br i1 %22, label %23, label %26

23:                                               ; preds = %5
  %24 = getelementptr inbounds nuw %"struct.std::__1::__fs::filesystem::detail::ErrorHandler.1", ptr %11, i32 0, i32 1
  %25 = load ptr, ptr %24, align 8, !tbaa !57
  call void @_ZNSt3__110error_code5clearB8ne210000Ev(ptr noundef nonnull align 8 dereferenceable(16) %25) #20
  br label %26

26:                                               ; preds = %23, %5
  ret void
}

; Function Attrs: mustprogress uwtable
define dso_local void @_ZNSt3__14__fs10filesystem18__create_hard_linkERKNS1_4pathES4_PNS_10error_codeE(ptr noundef nonnull align 8 dereferenceable(24) %0, ptr noundef nonnull align 8 dereferenceable(24) %1, ptr noundef %2) #0 {
  %4 = alloca ptr, align 8
  %5 = alloca ptr, align 8
  %6 = alloca ptr, align 8
  %7 = alloca %"struct.std::__1::__fs::filesystem::detail::ErrorHandler.1", align 8
  %8 = alloca %"class.std::__1::error_code", align 8
  %9 = alloca i32, align 4
  store ptr %0, ptr %4, align 8, !tbaa !5
  store ptr %1, ptr %5, align 8, !tbaa !5
  store ptr %2, ptr %6, align 8, !tbaa !10
  call void @llvm.lifetime.start.p0(i64 32, ptr %7) #20
  %10 = load ptr, ptr %6, align 8, !tbaa !10
  %11 = load ptr, ptr %4, align 8, !tbaa !5
  %12 = load ptr, ptr %5, align 8, !tbaa !5
  call void @_ZNSt3__14__fs10filesystem6detail12ErrorHandlerIvEC2B8ne210000EPKcPNS_10error_codeEPKNS1_4pathESB_(ptr noundef nonnull align 8 dereferenceable(32) %7, ptr noundef @.str.7, ptr noundef %10, ptr noundef %11, ptr noundef %12)
  %13 = load ptr, ptr %4, align 8, !tbaa !5
  %14 = call noundef ptr @_ZNKSt3__14__fs10filesystem4path5c_strB8ne210000Ev(ptr noundef nonnull align 8 dereferenceable(24) %13) #20
  %15 = load ptr, ptr %5, align 8, !tbaa !5
  %16 = call noundef ptr @_ZNKSt3__14__fs10filesystem4path5c_strB8ne210000Ev(ptr noundef nonnull align 8 dereferenceable(24) %15) #20
  %17 = call i32 @link(ptr noundef %14, ptr noundef %16) #20
  %18 = icmp eq i32 %17, -1
  br i1 %18, label %19, label %25

19:                                               ; preds = %3
  call void @llvm.lifetime.start.p0(i64 16, ptr %8) #20
  %20 = call { i32, ptr } @_ZNSt3__14__fs10filesystem6detail14get_last_errorB8ne210000Ev()
  %21 = getelementptr inbounds nuw { i32, ptr }, ptr %8, i32 0, i32 0
  %22 = extractvalue { i32, ptr } %20, 0
  store i32 %22, ptr %21, align 8
  %23 = getelementptr inbounds nuw { i32, ptr }, ptr %8, i32 0, i32 1
  %24 = extractvalue { i32, ptr } %20, 1
  store ptr %24, ptr %23, align 8
  call void @_ZNKSt3__14__fs10filesystem6detail12ErrorHandlerIvE6reportB8ne210000ERKNS_10error_codeE(ptr noundef nonnull align 8 dereferenceable(32) %7, ptr noundef nonnull align 8 dereferenceable(16) %8)
  call void @llvm.lifetime.end.p0(i64 16, ptr %8) #20
  store i32 1, ptr %9, align 4
  br label %26

25:                                               ; preds = %3
  store i32 0, ptr %9, align 4
  br label %26

26:                                               ; preds = %25, %19
  call void @llvm.lifetime.end.p0(i64 32, ptr %7) #20
  %27 = load i32, ptr %9, align 4
  switch i32 %27, label %29 [
    i32 0, label %28
    i32 1, label %28
  ]

28:                                               ; preds = %26, %26
  ret void

29:                                               ; preds = %26
  unreachable
}